******************************************************************************
                  TI ARM Linker PC v5.1.6                      
******************************************************************************
>> Linked Sat Jul 30 00:32:54 2016

OUTPUT FILE NAME:   <ENCE463-Tetris.out>
ENTRY POINT SYMBOL: "_c_int00"  address: 00006919


MEMORY CONFIGURATION

         name            origin    length      used     unused   attr    fill
----------------------  --------  ---------  --------  --------  ----  --------
  FLASH                 00000000   00040000  00008c0e  000373f2  R  X
  SRAM                  20000000   00010000  00007cfc  00008304  RW X


SEGMENT ALLOCATION MAP

run origin  load origin   length   init length attrs members
----------  ----------- ---------- ----------- ----- -------
00000000    00000000    00008c10   00008c10    r-x
  00000000    00000000    000000f0   000000f0    r-- .intvecs
  000000f0    000000f0    00006a80   00006a80    r-x .text
  00006b70    00006b70    00001dc6   00001dc6    r-- .const
  00008938    00008938    000002d8   000002d8    r-- .cinit
20000000    20000000    00007cfc   00000000    rw-
  20000000    20000000    00003200   00000000    rw- .sysmem
  20003200    20003200    00002df8   00000000    rw- .bss
  20005ff8    20005ff8    00001800   00000000    rw- .stack
  200077f8    200077f8    00000504   00000000    rw- .data


SECTION ALLOCATION MAP

 output                                  attributes/
section   page    origin      length       input sections
--------  ----  ----------  ----------   ----------------
.intvecs   0    00000000    000000f0     
                  00000000    000000f0     startup_ccs.obj (.intvecs)

.text      0    000000f0    00006a80     
                  000000f0    00000ebc     rtsv7M3_T_le_eabi.lib : _printfi.obj (.text)
                  00000fac    00000bdc     game_engine.obj (.text)
                  00001b88    00000ab8     tasks.obj (.text)
                  00002640    00000614     queue.obj (.text)
                  00002c54    00000550     math.obj (.text)
                  000031a4    00000510     rit128x96x4.obj (.text)
                  000036b4    000003fc     display.obj (.text)
                  00003ab0    000003cc     rtsv7M3_T_le_eabi.lib : memory.obj (.text)
                  00003e7c    00000310                           : lowlev.obj (.text)
                  0000418c    000002d4                           : trgdrv.obj (.text)
                  00004460    000002bc     main.obj (.text)
                  0000471c    00000280     board.obj (.text)
                  0000499c    000001f4     rtsv7M3_T_le_eabi.lib : ull_div_t2.obj (.text)
                  00004b90    000001d8     driverlib-cm3.lib : sysctl.obj (.text:SysCtlClockGet)
                  00004d68    000001c0     rtsv7M3_T_le_eabi.lib : fopen.obj (.text)
                  00004f28    000001bc     heap_2.obj (.text)
                  000050e4    000001b6     rtsv7M3_T_le_eabi.lib : fd_add_t2.obj (.text)
                  0000529a    00000002     --HOLE-- [fill = 0]
                  0000529c    000001a8     buttons.obj (.text)
                  00005444    00000144     driverlib-cm3.lib : sysctl.obj (.text:SysCtlClockSet)
                  00005588    00000136     rtsv7M3_T_le_eabi.lib : fd_div_t2.obj (.text)
                  000056be    00000002     --HOLE-- [fill = 0]
                  000056c0    00000134                           : fputs.obj (.text)
                  000057f4    0000012e     list.obj (.text)
                  00005922    000000fc     rtsv7M3_T_le_eabi.lib : fd_mul_t2.obj (.text)
                  00005a1e    00000002     --HOLE-- [fill = 0]
                  00005a20    000000e4     port.obj (.text)
                  00005b04    000000dc     rtsv7M3_T_le_eabi.lib : setvbuf.obj (.text)
                  00005be0    000000dc     timer.obj (.text)
                  00005cbc    000000c8     driverlib-cm3.lib : gpio.obj (.text:GPIOPadConfigSet)
                  00005d84    000000c0     rtsv7M3_T_le_eabi.lib : fflush.obj (.text)
                  00005e44    000000ac                           : _io_perm.obj (.text)
                  00005ef0    0000009c     portasm.obj (.text)
                  00005f8c    0000009c     rtsv7M3_T_le_eabi.lib : fputc.obj (.text)
                  00006028    0000009c                           : memcpy_t2.obj (.text)
                  000060c4    00000098                           : fclose.obj (.text)
                  0000615c    00000094                           : auto_init.obj (.text)
                  000061f0    00000088     driverlib-cm3.lib : sysctl.obj (.text:SysCtlPeripheralReset)
                  00006278    00000086     rtsv7M3_T_le_eabi.lib : fd_cmp_t2.obj (.text:__aeabi_cdcmple)
                  000062fe    00000086                           : fd_cmp_t2.obj (.text:__aeabi_cdrcmple)
                  00006384    00000078                           : memset_t2.obj (.text)
                  000063fc    00000074     tetrominoe.obj (.text)
                  00006470    00000070     rtsv7M3_T_le_eabi.lib : printf.obj (.text)
                  000064e0    00000064                           : fseek.obj (.text)
                  00006544    00000060     basic_io.obj (.text)
                  000065a4    00000060     rtsv7M3_T_le_eabi.lib : sprintf.obj (.text)
                  00006604    00000060                           : trgmsg.obj (.text)
                  00006664    0000005e                           : copy_decompress_rle.obj (.text)
                  000066c2    0000005a                           : ltoa.obj (.text)
                  0000671c    00000058     driverlib-cm3.lib : sysctl.obj (.text:SysCtlPeripheralEnable)
                  00006774    0000004c     rtsv7M3_T_le_eabi.lib : atoi.obj (.text)
                  000067c0    00000048                           : fd_toi_t2.obj (.text)
                  00006808    00000044     driverlib-cm3.lib : ssi.obj (.text:SSIConfigSetExpClk)
                  0000684c    00000044     rtsv7M3_T_le_eabi.lib : cpy_tbl.obj (.text)
                  00006890    00000044                           : exit.obj (.text)
                  000068d4    00000044                           : xdtest.obj (.text)
                  00006918    00000034                           : boot.obj (.text)
                  0000694c    00000030                           : strncpy.obj (.text)
                  0000697c    0000002e     driverlib-cm3.lib : gpio.obj (.text:GPIODirModeSet)
                  000069aa    0000002e     rtsv7M3_T_le_eabi.lib : i_tofd_t2.obj (.text)
                  000069d8    00000022                           : memcmp.obj (.text)
                  000069fa    0000001a                           : memccpy.obj (.text)
                  00006a14    00000018                           : args_main.obj (.text)
                  00006a2c    00000018                           : ll_mul_t2.obj (.text)
                  00006a44    00000018                           : strcmp.obj (.text)
                  00006a5c    00000016                           : memchr.obj (.text)
                  00006a72    00000016                           : strchr.obj (.text)
                  00006a88    00000014                           : _lock.obj (.text)
                  00006a9c    00000014                           : strlen.obj (.text)
                  00006ab0    00000012     driverlib-cm3.lib : gpio.obj (.text:GPIOPinTypeGPIOOutput)
                  00006ac2    00000012                       : gpio.obj (.text:GPIOPinTypeSSI)
                  00006ad4    00000012                       : ssi.obj (.text:SSIDataGetNonBlocking)
                  00006ae6    00000012     rtsv7M3_T_le_eabi.lib : copy_zero_init.obj (.text:decompress:ZI)
                  00006af8    00000012                           : strcpy.obj (.text)
                  00006b0a    0000000e                           : copy_decompress_none.obj (.text:decompress:none)
                  00006b18    0000000e                           : xdclass.obj (.text)
                  00006b26    0000000c     startup_ccs.obj (.text)
                  00006b32    0000000a     driverlib-cm3.lib : ssi.obj (.text:SSIDataPut)
                  00006b3c    0000000a                       : ssi.obj (.text:SSIDisable)
                  00006b46    0000000a                       : ssi.obj (.text:SSIEnable)
                  00006b50    00000008                       : ssi.obj (.text:SSIBusy)
                  00006b58    00000006                       : gpio.obj (.text:GPIOPinRead)
                  00006b5e    00000006                       : gpio.obj (.text:GPIOPinWrite)
                  00006b64    00000006                       : sysctl.obj (.text:SysCtlDelay)
                  00006b6a    00000006     rtsv7M3_T_le_eabi.lib : copy_decompress_rle.obj (.text:decompress:rle24)

.const     0    00006b70    00001dc6     
                  00006b70    00000f80     tetris_background.obj (.const:.string:TETRIS_BACKGROUND_DATA)
                  00007af0    00000240     images.obj (.const)
                  00007d30    000001e0     rit128x96x4.obj (.const:g_pucFont)
                  00007f10    0000016d     text_images.obj (.const:.string)
                  0000807d    00000001     --HOLE-- [fill = 0]
                  0000807e    00000102     rtsv7M3_T_le_eabi.lib : ctype.obj (.const:.string:_ctypes_)
                  00008180    000000c0     strings.obj (.const:.string)
                  00008240    00000080     display.obj (.const)
                  000082c0    0000006c     driverlib-cm3.lib : sysctl.obj (.const:g_pulXtals)
                  0000832c    00000050     images.obj (.const:.string)
                  0000837c    0000004f     rit128x96x4.obj (.const:.string:g_pucRIT128x96x4Init)
                  000083cb    00000001     --HOLE-- [fill = 0]
                  000083cc    00000040     driverlib-cm3.lib : sysctl.obj (.const)
                  0000840c    00000040     tetrominoe.obj (.const:i_pose1)
                  0000844c    00000040     tetrominoe.obj (.const:i_pose2)
                  0000848c    00000040     tetrominoe.obj (.const:ll_pose1)
                  000084cc    00000040     tetrominoe.obj (.const:ll_pose2)
                  0000850c    00000040     tetrominoe.obj (.const:ll_pose3)
                  0000854c    00000040     tetrominoe.obj (.const:ll_pose4)
                  0000858c    00000040     tetrominoe.obj (.const:lz_pose1)
                  000085cc    00000040     tetrominoe.obj (.const:lz_pose2)
                  0000860c    00000040     tetrominoe.obj (.const:rl_pose1)
                  0000864c    00000040     tetrominoe.obj (.const:rl_pose2)
                  0000868c    00000040     tetrominoe.obj (.const:rl_pose3)
                  000086cc    00000040     tetrominoe.obj (.const:rl_pose4)
                  0000870c    00000040     tetrominoe.obj (.const:rz_pose1)
                  0000874c    00000040     tetrominoe.obj (.const:rz_pose2)
                  0000878c    00000040     tetrominoe.obj (.const:s_pose1)
                  000087cc    00000040     tetrominoe.obj (.const:t_pose1)
                  0000880c    00000040     tetrominoe.obj (.const:t_pose2)
                  0000884c    00000040     tetrominoe.obj (.const:t_pose3)
                  0000888c    00000040     tetrominoe.obj (.const:t_pose4)
                  000088cc    00000030     game_engine.obj (.const)
                  000088fc    00000018     main.obj (.const)
                  00008914    00000014     tasks.obj (.const:.string)
                  00008928    0000000c     rit128x96x4.obj (.const:.string)
                  00008934    00000002     heap_2.obj (.const)

.cinit     0    00008938    000002d8     
                  00008938    000002b0     (.cinit..data.load) [load image, compression = rle]
                  00008be8    0000000c     (__TI_handler_table)
                  00008bf4    00000004     --HOLE-- [fill = 0]
                  00008bf8    00000008     (.cinit..bss.load) [load image, compression = zero_init]
                  00008c00    00000010     (__TI_cinit_table)

.sysmem    0    20000000    00003200     UNINITIALIZED
                  20000000    00000008     rtsv7M3_T_le_eabi.lib : memory.obj (.sysmem)
                  20000008    000031f8     --HOLE--

.bss       0    20003200    00002df8     UNINITIALIZED
                  20003200    00002800     heap_2.obj (.bss:xHeap)
                  20005a00    00000320     game_engine.obj (.bss:grid)
                  20005d20    00000120     rtsv7M3_T_le_eabi.lib : trgmsg.obj (.bss:__CIOBUF_)
                  20005e40    000000a0                           : defs.obj (.bss:__TI_tmpnams)
                  20005ee0    00000064     tasks.obj (.bss:pxReadyTasksLists)
                  20005f44    00000034     basic_io.obj (.bss:cBuffer)
                  20005f78    00000014     (.common:xDelayedTaskList1)
                  20005f8c    00000014     (.common:xDelayedTaskList2)
                  20005fa0    00000014     (.common:xPendingReadyList)
                  20005fb4    00000014     (.common:xTasksWaitingTermination)
                  20005fc8    00000008     (.common:g_pucBuffer)
                  20005fd0    00000008     (.common:parmbuf)
                  20005fd8    00000008     (.common:xEnd)
                  20005fe0    00000008     (.common:xStart)
                  20005fe8    00000004     (.common:g_ulSSIFlags)
                  20005fec    00000004     (.common:pxDelayedTaskList)
                  20005ff0    00000004     (.common:pxOverflowDelayedTaskList)
                  20005ff4    00000004     (.common:seed)

.stack     0    20005ff8    00001800     UNINITIALIZED
                  20005ff8    00001800     --HOLE--

.data      0    200077f8    00000504     UNINITIALIZED
                  200077f8    000000f0     rtsv7M3_T_le_eabi.lib : defs.obj (.data:_ftable)
                  200078e8    000000d0                           : lowlev.obj (.data)
                  200079b8    000000c4     tetrominoe.obj (.data)
                  20007a7c    00000078     images.obj (.data:FONT)
                  20007af4    00000070     buttons.obj (.data)
                  20007b64    00000050     game_engine.obj (.data:tick_rates)
                  20007bb4    00000040     strings.obj (.data)
                  20007bf4    00000034     game_engine.obj (.data:base_game)
                  20007c28    00000030     tasks.obj (.data)
                  20007c58    00000028     images.obj (.data:NUMBERS)
                  20007c80    00000028     game_engine.obj (.data)
                  20007ca8    00000010     images.obj (.data)
                  20007cb8    00000010     rtsv7M3_T_le_eabi.lib : defs.obj (.data)
                  20007cc8    0000000c                           : memory.obj (.data)
                  20007cd4    00000008     heap_2.obj (.data)
                  20007cdc    00000008     rtsv7M3_T_le_eabi.lib : _lock.obj (.data)
                  20007ce4    00000008                           : exit.obj (.data)
                  20007cec    00000004     port.obj (.data)
                  20007cf0    00000004     rtsv7M3_T_le_eabi.lib : fopen.obj (.data)
                  20007cf4    00000004                           : stkdepth_vars.obj (.data)
                  20007cf8    00000004     timer.obj (.data)


LINKER GENERATED COPY TABLES

__TI_cinit_table @ 00008c00 records: 2, size/record: 8, table size: 16
	.data: load addr=00008938, load size=000002b0 bytes, run addr=200077f8, run size=00000504 bytes, compression=rle
	.bss: load addr=00008bf8, load size=00000008 bytes, run addr=20003200, run size=00002df8 bytes, compression=zero_init


LINKER GENERATED HANDLER TABLE

__TI_handler_table @ 00008be8 records: 3, size/record: 4, table size: 12
	index: 0, handler: __TI_decompress_rle24
	index: 1, handler: __TI_decompress_none
	index: 2, handler: __TI_zero_init


GLOBAL SYMBOLS: SORTED ALPHABETICALLY BY Name 

address    name
--------   ----
20007be8   AUTHOR_STRING
20007b54   BUTTONS
00007b20   BUTTON_ICON
0000835c   BUTTON_ICON_DATA
00006891   C$$EXIT
0000662f   C$$IO$$
00007af0   CUBE
0000832c   CUBE_DATA
20007bb4   DISPLAY_QUEUE_ERROR_MESSAGE
20007b0c   DOWN
20007bdc   DROP_HELP_MSG
00002d19   EEPROMBlockCountGet
00002fcd   EEPROMBlockHide
00002f5d   EEPROMBlockLock
00002f0b   EEPROMBlockPasswordSet
00002ed3   EEPROMBlockProtectGet
00002ee7   EEPROMBlockProtectSet
00002f85   EEPROMBlockUnlock
00002cc9   EEPROMInit
00003061   EEPROMIntClear
0000300d   EEPROMIntDisable
00002fe5   EEPROMIntEnable
00003031   EEPROMIntStatus
00002e95   EEPROMMassErase
00002d79   EEPROMProgram
00002e53   EEPROMProgramNonBlocking
00002d27   EEPROMRead
00002d0d   EEPROMSizeGet
00003089   EEPROMStatusGet
00007b14   EMPTY_CELL
0000834a   EMPTY_CELL_DATA
20007bc4   FINAL_SCORE_STRING
20007a7c   FONT
00007b08   FULL_CELL
00008338   FULL_CELL_DATA
0000697d   GPIODirModeSet
00005cbd   GPIOPadConfigSet
00006b59   GPIOPinRead
00006ab1   GPIOPinTypeGPIOOutput
00006ac3   GPIOPinTypeSSI
00006b5f   GPIOPinWrite
00004419   HOSTclock
000043e1   HOSTclose
000043a3   HOSTgetenv
00004347   HOSTlseek
000042f5   HOSTopen
000042a9   HOSTread
0000424b   HOSTrename
00004211   HOSTtime
000041d9   HOSTunlink
0000418d   HOSTwrite
20007b3c   LEFT
20007be0   LEFT_HELP_MSG
00007be0   LETTER_A
00007f72   LETTER_A_DATA
00007bec   LETTER_B
00007f7b   LETTER_B_DATA
00007bf8   LETTER_C
00007f84   LETTER_C_DATA
00007c04   LETTER_D
00007f8d   LETTER_D_DATA
00007c10   LETTER_E
00007f96   LETTER_E_DATA
00007c1c   LETTER_F
00007f9f   LETTER_F_DATA
00007c28   LETTER_G
00007fa8   LETTER_G_DATA
00007c34   LETTER_H
00007fb1   LETTER_H_DATA
00007c40   LETTER_I
00007fba   LETTER_I_DATA
00007c4c   LETTER_J
00007fc3   LETTER_J_DATA
00007c58   LETTER_K
00007fcc   LETTER_K_DATA
00007c64   LETTER_L
00007fd5   LETTER_L_DATA
00007c70   LETTER_M
00007fde   LETTER_M_DATA
00007c7c   LETTER_N
00007fed   LETTER_N_DATA
00007c88   LETTER_O
00007ff6   LETTER_O_DATA
00007c94   LETTER_P
00007fff   LETTER_P_DATA
00007ca0   LETTER_Q
00008008   LETTER_Q_DATA
00007cac   LETTER_R
00008014   LETTER_R_DATA
00007cb8   LETTER_S
0000801d   LETTER_S_DATA
00007cc4   LETTER_T
00008026   LETTER_T_DATA
00007cd0   LETTER_U
00007d24   LETTER_UNDEFINED
00008074   LETTER_UNDEFINED_DATA
0000802f   LETTER_U_DATA
00007cdc   LETTER_V
00008038   LETTER_V_DATA
00007ce8   LETTER_W
00008041   LETTER_W_DATA
00007cf4   LETTER_X
00008050   LETTER_X_DATA
00007d00   LETTER_Y
00008059   LETTER_Y_DATA
00007d0c   LETTER_Z
00008062   LETTER_Z_DATA
00007d18   LETTER__
0000806b   LETTER___DATA
20007bc8   LEVELS_CLEARED_STRING
20007bbc   LEVEL_STRING
20007cf8   MAX_PORT_TICK_VALUE
20007bc0   NEXT_STRING
00007b38   NUMBER0
00007f10   NUMBER0_DATA
00007b44   NUMBER1
00007f19   NUMBER1_DATA
00007b50   NUMBER2
00007f22   NUMBER2_DATA
00007b5c   NUMBER3
00007f2b   NUMBER3_DATA
00007b68   NUMBER4
00007f34   NUMBER4_DATA
00007b74   NUMBER5
00007f3d   NUMBER5_DATA
00007b80   NUMBER6
00007f46   NUMBER6_DATA
00007b8c   NUMBER7
00007f4f   NUMBER7_DATA
00007b98   NUMBER8
00007f58   NUMBER8_DATA
00007ba4   NUMBER9
00007f61   NUMBER9_DATA
20007c58   NUMBERS
20007b24   RIGHT
20007be4   RIGHT_HELP_MSG
000032ad   RIT128x96x4Clear
0000352b   RIT128x96x4Disable
0000367d   RIT128x96x4DisplayOff
00003649   RIT128x96x4DisplayOn
000034d1   RIT128x96x4Enable
00003449   RIT128x96x4ImageDraw
000035a5   RIT128x96x4Init
00003309   RIT128x96x4StringDraw
20007bd8   ROTATE_HELP_MSG
20007bd4   ROWS_COMPLETED_STRING
20007ca8   RUNNING_ANIMATION
00007bb0   RUNNING_ANIMATION0
00007f6a   RUNNING_ANIMATION0_DATA
00007bbc   RUNNING_ANIMATION1
00007f6c   RUNNING_ANIMATION1_DATA
00007bc8   RUNNING_ANIMATION2
00007f6e   RUNNING_ANIMATION2_DATA
00007bd4   RUNNING_ANIMATION3
00007f70   RUNNING_ANIMATION3_DATA
00006b27   ResetISR
20007bb8   SCORE_STRING
UNDEFED    SHT$$INIT_ARRAY$$Base
UNDEFED    SHT$$INIT_ARRAY$$Limit
00007afc   SMALL_CUBE
00008334   SMALL_CUBE_DATA
00006b51   SSIBusy
00006809   SSIConfigSetExpClk
00006ad5   SSIDataGetNonBlocking
00006b33   SSIDataPut
00006b3d   SSIDisable
00006b47   SSIEnable
00004b91   SysCtlClockGet
00005445   SysCtlClockSet
00006b65   SysCtlDelay
0000671d   SysCtlPeripheralEnable
000061f1   SysCtlPeripheralReset
20007bd0   TEMP_GAME_OVER_STRING
20007bf0   TEMP_TETRIS_STRING
00007b2c   TETRIS_BACKGROUND
00006b70   TETRIS_BACKGROUND_DATA
20007bcc   THANKS_STRING
20007af4   UP
20007bec   VERSION_STRING
00006b19   _Dclass
000068d5   _Dtest
20005d20   __CIOBUF_
200077f8   __STACK_END
00001800   __STACK_SIZE
200060f8   __STACK_TOP
00003200   __SYSMEM_SIZE
00008c00   __TI_CINIT_Base
00008c10   __TI_CINIT_Limit
00008be8   __TI_Handler_Table_Base
00008bf4   __TI_Handler_Table_Limit
00000001   __TI_args_main
0000615d   __TI_auto_init
00004e31   __TI_cleanup
20007ce4   __TI_cleanup_ptr
000060c5   __TI_closefile
00006b0b   __TI_decompress_none
00006b6b   __TI_decompress_rle24
00005d85   __TI_doflush
20007ce8   __TI_dtors_ptr
20007cb8   __TI_ft_end
00000ca3   __TI_printfi
00005ea7   __TI_rd_ok
00006633   __TI_readmsg
00000000   __TI_static_base__
20005e40   __TI_tmpnams
00006605   __TI_writemsg
00005e45   __TI_wrt_ok
00006ae7   __TI_zero_init
00006279   __aeabi_cdcmpeq
00006279   __aeabi_cdcmple
000062ff   __aeabi_cdrcmple
000067c1   __aeabi_d2iz
000050ef   __aeabi_dadd
00005589   __aeabi_ddiv
00005923   __aeabi_dmul
000050e5   __aeabi_dsub
000069ab   __aeabi_i2d
00006a2d   __aeabi_lmul
00006385   __aeabi_memclr
00006385   __aeabi_memclr4
00006385   __aeabi_memclr8
00006029   __aeabi_memcpy
00006029   __aeabi_memcpy4
00006029   __aeabi_memcpy8
00006387   __aeabi_memset
00006387   __aeabi_memset4
00006387   __aeabi_memset8
20007cc4   __aeabi_stderr
20007cbc   __aeabi_stdin
20007cc0   __aeabi_stdout
0000499d   __aeabi_uldivmod
ffffffff   __binit__
ffffffff   __c_args__
20005ff8   __stack
00006a15   _args_main
00006919   _c_int00
0000807e   _ctypes_
200077f8   _ftable
20007cdc   _lock
00006a97   _nop
00006a8f   _register_lock
00006a89   _register_unlock
20000000   _sys_memory
20007ce0   _unlock
00006895   abort
0000311b   abs_modulo
000040df   add_device
00006775   atoi
20007bf4   base_game
ffffffff   binit
200079b8   block0
200079d4   block1
200079f0   block2
20007a0c   block3
20007a28   block4
20007a44   block5
20007a60   block6
0000534d   button_event_occurred
000010a1   button_process_loop
0000151b   calculate_tetris_grid_x_position
00001505   calculate_tetris_grid_y_position
00003e45   calloc
0000162f   can_drop_current_tetrominoe
00001641   can_rotate_current_tetrominoe
00001659   can_shift_current_tetrominoe
0000471d   clear_board
0000371d   clear_display
000018bd   clear_full_rows
000048d3   clear_row
0000408d   close
0000684d   copy_in
0000154d   current_tetrominoe_can_occupy
0000170d   debug_board
00001405   draw_current_tetrominoe
00001425   draw_current_tetrominoe_as
0000185d   draw_next_tetrominoe_on_side
0000146d   draw_tetrominoe
00005ca9   elapsed_time_ms
00005423   enqueue_button_event
00003927   enqueue_display_task
00001413   erase_current_tetrominoe
0000188d   erase_next_tetrominoe_on_side
00003887   execute_display_task
0000689d   exit
0000612b   fclose
00005dd1   fflush
00004e87   fopen
00005f8d   fputc
000056c1   fputs
00003b9f   free
00004e5d   freopen
000064e1   fseek
00001ab7   full_drop_current_tetrominoe
00000000   g_pfnVectors
20007c80   game_board
00001019   game_loop
0000474f   get_board_value
000013ef   get_current_tetrominoe
000047b9   get_next_complete_row
000017f1   get_next_tetrominoe
00006419   get_tetromineo_grid
20005a00   grid
00005be1   has_timed_out
00004969   highest_occupied_cell_in_column
0000840c   i_pose1
0000844c   i_pose2
0000530d   initalise_button
0000540b   initalise_button_event_queue
0000529d   initalise_buttons
0000370b   initalise_display
0000390f   initalise_display_queue
0000131f   initalise_game
0000310b   initalise_random_number_generator
000048a9   is_occupied
00004875   is_off_board
0000848c   ll_pose1
000084cc   ll_pose2
0000850c   ll_pose3
0000854c   ll_pose4
00004069   lseek
000066c3   ltoa
0000858c   lz_pose1
000085cc   lz_pose2
00004461   main
20007cf4   main_func_sp
00003b3d   malloc
00003d65   memalign
000069fb   memccpy
00006a5d   memchr
000069d9   memcmp
00006029   memcpy
0000638d   memset
00003ab1   minit
00004815   num_complete_rows
00003fbb   open
00001681   place_current_tetrominoe
00006479   printf
000010ed   process_button_event
00006011   putc
00006015   putchar
000057cb   puts
00004f29   pvPortMalloc
20007c28   pxCurrentTCB
00005a21   pxPortInitialiseStack
000039d5   quick_clear_screen
00003971   quick_initalise_screen
000039a5   quick_send_image
000039f9   quick_send_number
00003a29   quick_send_string
00003a5d   quick_send_string_rit
000030d9   rand_range
00003f97   read
00005323   read_button
00003c5f   realloc
000019e5   redraw_empty_cells
00003f0d   remove
00003f6f   remove_device
00003f31   rename
00001335   reset_game
000063fd   reset_tetromineo
0000860c   rl_pose1
0000864c   rl_pose2
0000868c   rl_pose3
000086cc   rl_pose4
0000642f   rotate_tetromineo
0000870c   rz_pose1
0000874c   rz_pose2
0000878c   s_pose1
00001261   score_screen_loop
20005ff4   seed
00004795   set_board_value
00005b05   setvbuf
0000644f   shift_tetrominoe
00001791   spawn_new_tetrominoe
0000113f   splash_screen_loop
000065a5   sprintf
00005c37   start_timeout
00006a73   strchr
00006a45   strcmp
00006af9   strcpy
00006a9d   strlen
0000694d   strncpy
0000314b   symbols_in_number
000087cc   t_pose1
0000880c   t_pose2
0000884c   t_pose3
0000888c   t_pose4
00001967   temp_fill_cells
20007c8c   tetrominoes
00004503   tetronimoe_drop_test
0000458b   tetronimoe_drop_test2
00005c09   tick_difference
20007b64   tick_rates
00005c4d   timer_start
00005c97   timer_stop
00005c67   timer_update
0000491f   trickle_down_column
00001a63   try_rotate_current_tetrominoe
00001a89   try_shift_current_tetrominoe
00003f0d   unlink
00001afd   update_level_display
00001b19   update_score_and_level
00001ae3   update_score_display
0000309d   urand
00002a5b   uxQueueMessagesWaiting
00002a71   uxQueueMessagesWaitingFromISR
00002085   uxTaskGetNumberOfTasks
00001e19   uxTaskPriorityGet
000046c7   vApplicationIdleHook
000046bb   vApplicationMallocFailedHook
000046bd   vApplicationStackOverflowHook
000046c9   vApplicationTickHook
00004693   vButtonTest
0000464d   vDisplayRunning
000057f5   vListInitialise
00005825   vListInitialiseItem
00005879   vListInsert
00005835   vListInsertEnd
000058df   vListRemove
00005f3d   vPortClearInterruptMask
00005f7b   vPortEnableVFP
00005a91   vPortEndScheduler
00005a9d   vPortEnterCritical
00005aad   vPortExitCritical
0000505b   vPortFree
000050c3   vPortInitialiseBlocks
00005f4b   vPortSVCHandler
00005f2f   vPortSetInterruptMask
00005f69   vPortStartFirstTask
00005a93   vPortYieldFromISR
00006545   vPrintString
00006569   vPrintStringAndNumber
00002a83   vQueueDelete
00001db5   vTaskDelay
000044c1   vTaskDelayTest
00001d05   vTaskDelayUntil
00001c9d   vTaskDelete
00001f83   vTaskEndScheduler
00004497   vTaskFunction
00004615   vTaskImageFun
0000208b   vTaskIncrementTick
00002375   vTaskMissedYield
000021f9   vTaskPlaceOnEventList
000025b1   vTaskPriorityDisinherit
00002529   vTaskPriorityInherit
00001e55   vTaskPrioritySet
000022e5   vTaskSetTimeOutState
00001f3d   vTaskStartScheduler
00001f95   vTaskSuspendAll
0000213d   vTaskSwitchContext
00003e7d   write
000036dd   write_image
000036b5   write_string
0000372d   write_tetris_number
000037b5   write_tetris_string
00005391   xButtonReadTask
0000385f   xDisplayTask
00000fad   xGameEngineTask
000050bd   xPortGetFreeHeapSize
00005ef5   xPortPendSVHandler
00005a69   xPortStartScheduler
00005ac3   xPortSysTickHandler
00002641   xQueueCreate
0000274f   xQueueCreateCountingSemaphore
000026e7   xQueueCreateMutex
000028bf   xQueueGenericReceive
0000276d   xQueueGenericSend
00002855   xQueueGenericSendFromISR
00002bfd   xQueueIsQueueEmptyFromISR
00002c37   xQueueIsQueueFullFromISR
000029f3   xQueueReceiveFromISR
0000230d   xTaskCheckForTimeOut
00001b89   xTaskGenericCreate
0000250f   xTaskGetCurrentTaskHandle
00002071   xTaskGetTickCount
00002261   xTaskRemoveFromEventList
00001fad   xTaskResumeAll


GLOBAL SYMBOLS: SORTED BY Symbol Address 

address    name
--------   ----
00000000   __TI_static_base__
00000000   g_pfnVectors
00000001   __TI_args_main
00000ca3   __TI_printfi
00000fad   xGameEngineTask
00001019   game_loop
000010a1   button_process_loop
000010ed   process_button_event
0000113f   splash_screen_loop
00001261   score_screen_loop
0000131f   initalise_game
00001335   reset_game
000013ef   get_current_tetrominoe
00001405   draw_current_tetrominoe
00001413   erase_current_tetrominoe
00001425   draw_current_tetrominoe_as
0000146d   draw_tetrominoe
00001505   calculate_tetris_grid_y_position
0000151b   calculate_tetris_grid_x_position
0000154d   current_tetrominoe_can_occupy
0000162f   can_drop_current_tetrominoe
00001641   can_rotate_current_tetrominoe
00001659   can_shift_current_tetrominoe
00001681   place_current_tetrominoe
0000170d   debug_board
00001791   spawn_new_tetrominoe
000017f1   get_next_tetrominoe
00001800   __STACK_SIZE
0000185d   draw_next_tetrominoe_on_side
0000188d   erase_next_tetrominoe_on_side
000018bd   clear_full_rows
00001967   temp_fill_cells
000019e5   redraw_empty_cells
00001a63   try_rotate_current_tetrominoe
00001a89   try_shift_current_tetrominoe
00001ab7   full_drop_current_tetrominoe
00001ae3   update_score_display
00001afd   update_level_display
00001b19   update_score_and_level
00001b89   xTaskGenericCreate
00001c9d   vTaskDelete
00001d05   vTaskDelayUntil
00001db5   vTaskDelay
00001e19   uxTaskPriorityGet
00001e55   vTaskPrioritySet
00001f3d   vTaskStartScheduler
00001f83   vTaskEndScheduler
00001f95   vTaskSuspendAll
00001fad   xTaskResumeAll
00002071   xTaskGetTickCount
00002085   uxTaskGetNumberOfTasks
0000208b   vTaskIncrementTick
0000213d   vTaskSwitchContext
000021f9   vTaskPlaceOnEventList
00002261   xTaskRemoveFromEventList
000022e5   vTaskSetTimeOutState
0000230d   xTaskCheckForTimeOut
00002375   vTaskMissedYield
0000250f   xTaskGetCurrentTaskHandle
00002529   vTaskPriorityInherit
000025b1   vTaskPriorityDisinherit
00002641   xQueueCreate
000026e7   xQueueCreateMutex
0000274f   xQueueCreateCountingSemaphore
0000276d   xQueueGenericSend
00002855   xQueueGenericSendFromISR
000028bf   xQueueGenericReceive
000029f3   xQueueReceiveFromISR
00002a5b   uxQueueMessagesWaiting
00002a71   uxQueueMessagesWaitingFromISR
00002a83   vQueueDelete
00002bfd   xQueueIsQueueEmptyFromISR
00002c37   xQueueIsQueueFullFromISR
00002cc9   EEPROMInit
00002d0d   EEPROMSizeGet
00002d19   EEPROMBlockCountGet
00002d27   EEPROMRead
00002d79   EEPROMProgram
00002e53   EEPROMProgramNonBlocking
00002e95   EEPROMMassErase
00002ed3   EEPROMBlockProtectGet
00002ee7   EEPROMBlockProtectSet
00002f0b   EEPROMBlockPasswordSet
00002f5d   EEPROMBlockLock
00002f85   EEPROMBlockUnlock
00002fcd   EEPROMBlockHide
00002fe5   EEPROMIntEnable
0000300d   EEPROMIntDisable
00003031   EEPROMIntStatus
00003061   EEPROMIntClear
00003089   EEPROMStatusGet
0000309d   urand
000030d9   rand_range
0000310b   initalise_random_number_generator
0000311b   abs_modulo
0000314b   symbols_in_number
00003200   __SYSMEM_SIZE
000032ad   RIT128x96x4Clear
00003309   RIT128x96x4StringDraw
00003449   RIT128x96x4ImageDraw
000034d1   RIT128x96x4Enable
0000352b   RIT128x96x4Disable
000035a5   RIT128x96x4Init
00003649   RIT128x96x4DisplayOn
0000367d   RIT128x96x4DisplayOff
000036b5   write_string
000036dd   write_image
0000370b   initalise_display
0000371d   clear_display
0000372d   write_tetris_number
000037b5   write_tetris_string
0000385f   xDisplayTask
00003887   execute_display_task
0000390f   initalise_display_queue
00003927   enqueue_display_task
00003971   quick_initalise_screen
000039a5   quick_send_image
000039d5   quick_clear_screen
000039f9   quick_send_number
00003a29   quick_send_string
00003a5d   quick_send_string_rit
00003ab1   minit
00003b3d   malloc
00003b9f   free
00003c5f   realloc
00003d65   memalign
00003e45   calloc
00003e7d   write
00003f0d   remove
00003f0d   unlink
00003f31   rename
00003f6f   remove_device
00003f97   read
00003fbb   open
00004069   lseek
0000408d   close
000040df   add_device
0000418d   HOSTwrite
000041d9   HOSTunlink
00004211   HOSTtime
0000424b   HOSTrename
000042a9   HOSTread
000042f5   HOSTopen
00004347   HOSTlseek
000043a3   HOSTgetenv
000043e1   HOSTclose
00004419   HOSTclock
00004461   main
00004497   vTaskFunction
000044c1   vTaskDelayTest
00004503   tetronimoe_drop_test
0000458b   tetronimoe_drop_test2
00004615   vTaskImageFun
0000464d   vDisplayRunning
00004693   vButtonTest
000046bb   vApplicationMallocFailedHook
000046bd   vApplicationStackOverflowHook
000046c7   vApplicationIdleHook
000046c9   vApplicationTickHook
0000471d   clear_board
0000474f   get_board_value
00004795   set_board_value
000047b9   get_next_complete_row
00004815   num_complete_rows
00004875   is_off_board
000048a9   is_occupied
000048d3   clear_row
0000491f   trickle_down_column
00004969   highest_occupied_cell_in_column
0000499d   __aeabi_uldivmod
00004b91   SysCtlClockGet
00004e31   __TI_cleanup
00004e5d   freopen
00004e87   fopen
00004f29   pvPortMalloc
0000505b   vPortFree
000050bd   xPortGetFreeHeapSize
000050c3   vPortInitialiseBlocks
000050e5   __aeabi_dsub
000050ef   __aeabi_dadd
0000529d   initalise_buttons
0000530d   initalise_button
00005323   read_button
0000534d   button_event_occurred
00005391   xButtonReadTask
0000540b   initalise_button_event_queue
00005423   enqueue_button_event
00005445   SysCtlClockSet
00005589   __aeabi_ddiv
000056c1   fputs
000057cb   puts
000057f5   vListInitialise
00005825   vListInitialiseItem
00005835   vListInsertEnd
00005879   vListInsert
000058df   vListRemove
00005923   __aeabi_dmul
00005a21   pxPortInitialiseStack
00005a69   xPortStartScheduler
00005a91   vPortEndScheduler
00005a93   vPortYieldFromISR
00005a9d   vPortEnterCritical
00005aad   vPortExitCritical
00005ac3   xPortSysTickHandler
00005b05   setvbuf
00005be1   has_timed_out
00005c09   tick_difference
00005c37   start_timeout
00005c4d   timer_start
00005c67   timer_update
00005c97   timer_stop
00005ca9   elapsed_time_ms
00005cbd   GPIOPadConfigSet
00005d85   __TI_doflush
00005dd1   fflush
00005e45   __TI_wrt_ok
00005ea7   __TI_rd_ok
00005ef5   xPortPendSVHandler
00005f2f   vPortSetInterruptMask
00005f3d   vPortClearInterruptMask
00005f4b   vPortSVCHandler
00005f69   vPortStartFirstTask
00005f7b   vPortEnableVFP
00005f8d   fputc
00006011   putc
00006015   putchar
00006029   __aeabi_memcpy
00006029   __aeabi_memcpy4
00006029   __aeabi_memcpy8
00006029   memcpy
000060c5   __TI_closefile
0000612b   fclose
0000615d   __TI_auto_init
000061f1   SysCtlPeripheralReset
00006279   __aeabi_cdcmpeq
00006279   __aeabi_cdcmple
000062ff   __aeabi_cdrcmple
00006385   __aeabi_memclr
00006385   __aeabi_memclr4
00006385   __aeabi_memclr8
00006387   __aeabi_memset
00006387   __aeabi_memset4
00006387   __aeabi_memset8
0000638d   memset
000063fd   reset_tetromineo
00006419   get_tetromineo_grid
0000642f   rotate_tetromineo
0000644f   shift_tetrominoe
00006479   printf
000064e1   fseek
00006545   vPrintString
00006569   vPrintStringAndNumber
000065a5   sprintf
00006605   __TI_writemsg
0000662f   C$$IO$$
00006633   __TI_readmsg
000066c3   ltoa
0000671d   SysCtlPeripheralEnable
00006775   atoi
000067c1   __aeabi_d2iz
00006809   SSIConfigSetExpClk
0000684d   copy_in
00006891   C$$EXIT
00006895   abort
0000689d   exit
000068d5   _Dtest
00006919   _c_int00
0000694d   strncpy
0000697d   GPIODirModeSet
000069ab   __aeabi_i2d
000069d9   memcmp
000069fb   memccpy
00006a15   _args_main
00006a2d   __aeabi_lmul
00006a45   strcmp
00006a5d   memchr
00006a73   strchr
00006a89   _register_unlock
00006a8f   _register_lock
00006a97   _nop
00006a9d   strlen
00006ab1   GPIOPinTypeGPIOOutput
00006ac3   GPIOPinTypeSSI
00006ad5   SSIDataGetNonBlocking
00006ae7   __TI_zero_init
00006af9   strcpy
00006b0b   __TI_decompress_none
00006b19   _Dclass
00006b27   ResetISR
00006b33   SSIDataPut
00006b3d   SSIDisable
00006b47   SSIEnable
00006b51   SSIBusy
00006b59   GPIOPinRead
00006b5f   GPIOPinWrite
00006b65   SysCtlDelay
00006b6b   __TI_decompress_rle24
00006b70   TETRIS_BACKGROUND_DATA
00007af0   CUBE
00007afc   SMALL_CUBE
00007b08   FULL_CELL
00007b14   EMPTY_CELL
00007b20   BUTTON_ICON
00007b2c   TETRIS_BACKGROUND
00007b38   NUMBER0
00007b44   NUMBER1
00007b50   NUMBER2
00007b5c   NUMBER3
00007b68   NUMBER4
00007b74   NUMBER5
00007b80   NUMBER6
00007b8c   NUMBER7
00007b98   NUMBER8
00007ba4   NUMBER9
00007bb0   RUNNING_ANIMATION0
00007bbc   RUNNING_ANIMATION1
00007bc8   RUNNING_ANIMATION2
00007bd4   RUNNING_ANIMATION3
00007be0   LETTER_A
00007bec   LETTER_B
00007bf8   LETTER_C
00007c04   LETTER_D
00007c10   LETTER_E
00007c1c   LETTER_F
00007c28   LETTER_G
00007c34   LETTER_H
00007c40   LETTER_I
00007c4c   LETTER_J
00007c58   LETTER_K
00007c64   LETTER_L
00007c70   LETTER_M
00007c7c   LETTER_N
00007c88   LETTER_O
00007c94   LETTER_P
00007ca0   LETTER_Q
00007cac   LETTER_R
00007cb8   LETTER_S
00007cc4   LETTER_T
00007cd0   LETTER_U
00007cdc   LETTER_V
00007ce8   LETTER_W
00007cf4   LETTER_X
00007d00   LETTER_Y
00007d0c   LETTER_Z
00007d18   LETTER__
00007d24   LETTER_UNDEFINED
00007f10   NUMBER0_DATA
00007f19   NUMBER1_DATA
00007f22   NUMBER2_DATA
00007f2b   NUMBER3_DATA
00007f34   NUMBER4_DATA
00007f3d   NUMBER5_DATA
00007f46   NUMBER6_DATA
00007f4f   NUMBER7_DATA
00007f58   NUMBER8_DATA
00007f61   NUMBER9_DATA
00007f6a   RUNNING_ANIMATION0_DATA
00007f6c   RUNNING_ANIMATION1_DATA
00007f6e   RUNNING_ANIMATION2_DATA
00007f70   RUNNING_ANIMATION3_DATA
00007f72   LETTER_A_DATA
00007f7b   LETTER_B_DATA
00007f84   LETTER_C_DATA
00007f8d   LETTER_D_DATA
00007f96   LETTER_E_DATA
00007f9f   LETTER_F_DATA
00007fa8   LETTER_G_DATA
00007fb1   LETTER_H_DATA
00007fba   LETTER_I_DATA
00007fc3   LETTER_J_DATA
00007fcc   LETTER_K_DATA
00007fd5   LETTER_L_DATA
00007fde   LETTER_M_DATA
00007fed   LETTER_N_DATA
00007ff6   LETTER_O_DATA
00007fff   LETTER_P_DATA
00008008   LETTER_Q_DATA
00008014   LETTER_R_DATA
0000801d   LETTER_S_DATA
00008026   LETTER_T_DATA
0000802f   LETTER_U_DATA
00008038   LETTER_V_DATA
00008041   LETTER_W_DATA
00008050   LETTER_X_DATA
00008059   LETTER_Y_DATA
00008062   LETTER_Z_DATA
0000806b   LETTER___DATA
00008074   LETTER_UNDEFINED_DATA
0000807e   _ctypes_
0000832c   CUBE_DATA
00008334   SMALL_CUBE_DATA
00008338   FULL_CELL_DATA
0000834a   EMPTY_CELL_DATA
0000835c   BUTTON_ICON_DATA
0000840c   i_pose1
0000844c   i_pose2
0000848c   ll_pose1
000084cc   ll_pose2
0000850c   ll_pose3
0000854c   ll_pose4
0000858c   lz_pose1
000085cc   lz_pose2
0000860c   rl_pose1
0000864c   rl_pose2
0000868c   rl_pose3
000086cc   rl_pose4
0000870c   rz_pose1
0000874c   rz_pose2
0000878c   s_pose1
000087cc   t_pose1
0000880c   t_pose2
0000884c   t_pose3
0000888c   t_pose4
00008be8   __TI_Handler_Table_Base
00008bf4   __TI_Handler_Table_Limit
00008c00   __TI_CINIT_Base
00008c10   __TI_CINIT_Limit
20000000   _sys_memory
20005a00   grid
20005d20   __CIOBUF_
20005e40   __TI_tmpnams
20005ff4   seed
20005ff8   __stack
200060f8   __STACK_TOP
200077f8   __STACK_END
200077f8   _ftable
200079b8   block0
200079d4   block1
200079f0   block2
20007a0c   block3
20007a28   block4
20007a44   block5
20007a60   block6
20007a7c   FONT
20007af4   UP
20007b0c   DOWN
20007b24   RIGHT
20007b3c   LEFT
20007b54   BUTTONS
20007b64   tick_rates
20007bb4   DISPLAY_QUEUE_ERROR_MESSAGE
20007bb8   SCORE_STRING
20007bbc   LEVEL_STRING
20007bc0   NEXT_STRING
20007bc4   FINAL_SCORE_STRING
20007bc8   LEVELS_CLEARED_STRING
20007bcc   THANKS_STRING
20007bd0   TEMP_GAME_OVER_STRING
20007bd4   ROWS_COMPLETED_STRING
20007bd8   ROTATE_HELP_MSG
20007bdc   DROP_HELP_MSG
20007be0   LEFT_HELP_MSG
20007be4   RIGHT_HELP_MSG
20007be8   AUTHOR_STRING
20007bec   VERSION_STRING
20007bf0   TEMP_TETRIS_STRING
20007bf4   base_game
20007c28   pxCurrentTCB
20007c58   NUMBERS
20007c80   game_board
20007c8c   tetrominoes
20007ca8   RUNNING_ANIMATION
20007cb8   __TI_ft_end
20007cbc   __aeabi_stdin
20007cc0   __aeabi_stdout
20007cc4   __aeabi_stderr
20007cdc   _lock
20007ce0   _unlock
20007ce4   __TI_cleanup_ptr
20007ce8   __TI_dtors_ptr
20007cf4   main_func_sp
20007cf8   MAX_PORT_TICK_VALUE
ffffffff   __binit__
ffffffff   __c_args__
ffffffff   binit
UNDEFED    SHT$$INIT_ARRAY$$Base
UNDEFED    SHT$$INIT_ARRAY$$Limit

[477 symbols]
